; Function Attrs: nounwind uwtable
define hidden i32 @BIO_set_close(ptr noundef %0, i32 noundef %1) local_unnamed_addr #0 {
  %3 = sext i32 %1 to i64
  %4 = icmp eq ptr %0, null
  br i1 %4, label %BIO_ctrl.exit, label %5

5:                                                ; preds = %2
  %6 = load ptr, ptr %0, align 8, !tbaa !6
  %7 = icmp eq ptr %6, null
  br i1 %7, label %12, label %8

8:                                                ; preds = %5
  %9 = getelementptr inbounds nuw i8, ptr %6, i64 48
  %10 = load ptr, ptr %9, align 8, !tbaa !28
  %11 = icmp eq ptr %10, null
  br i1 %11, label %12, label %13

12:                                               ; preds = %8, %5
  tail call void @ERR_put_error(i32 noundef 17, i32 noundef 0, i32 noundef 115, ptr noundef nonnull @.str, i32 noundef 220) #18
  br label %BIO_ctrl.exit

13:                                               ; preds = %8
  %14 = getelementptr inbounds nuw i8, ptr %0, i64 8
  %15 = load ptr, ptr %14, align 8, !tbaa !20
  %.not.i = icmp eq ptr %15, null
  br i1 %.not.i, label %19, label %16

16:                                               ; preds = %13
  %17 = tail call i64 %15(ptr noundef nonnull %0, i32 noundef 6, ptr noundef null, i32 noundef 9, i64 noundef %3, i64 noundef 1) #18
  %18 = icmp slt i64 %17, 1
  br i1 %18, label %BIO_ctrl.exit, label %._crit_edge.i

._crit_edge.i:                                    ; preds = %16
  %.pre.i = load ptr, ptr %0, align 8, !tbaa !6
  %.phi.trans.insert.i = getelementptr inbounds nuw i8, ptr %.pre.i, i64 48
  %.pre31.i = load ptr, ptr %.phi.trans.insert.i, align 8, !tbaa !28
  br label %19

19:                                               ; preds = %._crit_edge.i, %13
  %20 = phi ptr [ %.pre31.i, %._crit_edge.i ], [ %10, %13 ]
  %21 = tail call i64 %20(ptr noundef nonnull %0, i32 noundef 9, i64 noundef %3, ptr noundef null) #18
  %22 = load ptr, ptr %14, align 8, !tbaa !20
  %.not30.i = icmp eq ptr %22, null
  br i1 %.not30.i, label %BIO_ctrl.exit, label %23

23:                                               ; preds = %19
  %24 = tail call i64 %22(ptr noundef nonnull %0, i32 noundef 134, ptr noundef null, i32 noundef 9, i64 noundef %3, i64 noundef %21) #18
  br label %BIO_ctrl.exit

BIO_ctrl.exit:                                    ; preds = %2, %12, %16, %19, %23
  %.024.i = phi i64 [ -2, %12 ], [ 0, %2 ], [ %17, %16 ], [ %24, %23 ], [ %21, %19 ]
  %25 = trunc i64 %.024.i to i32
  ret i32 %25
}